; Function Attrs: nounwind sspstrong uwtable
define dso_local void @ahci_reset(ptr noundef %s) local_unnamed_addr #0 {
entry:
  %_now.i.i = alloca %struct.timeval, align 8
  call void @llvm.lifetime.start.p0(i64 16, ptr nonnull %_now.i.i)
  %0 = load i32, ptr @trace_events_enabled_count, align 4
  %tobool.i.i = icmp ne i32 %0, 0
  %1 = load i16, ptr @_TRACE_AHCI_RESET_DSTATE, align 2
  %tobool4.i.i = icmp ne i16 %1, 0
  %or.cond.i.i = select i1 %tobool.i.i, i1 %tobool4.i.i, i1 false
  br i1 %or.cond.i.i, label %land.lhs.true5.i.i, label %trace_ahci_reset.exit

land.lhs.true5.i.i:                               ; preds = %entry
  %2 = load i32, ptr @qemu_loglevel, align 4
  %and.i.i.i = and i32 %2, 32768
  %cmp.i.not.i.i = icmp eq i32 %and.i.i.i, 0
  br i1 %cmp.i.not.i.i, label %trace_ahci_reset.exit, label %if.then.i.i

if.then.i.i:                                      ; preds = %land.lhs.true5.i.i
  %3 = load i8, ptr @message_with_timestamp, align 1
  %tobool7.i.i = trunc i8 %3 to i1
  br i1 %tobool7.i.i, label %if.then8.i.i, label %if.else.i.i

if.then8.i.i:                                     ; preds = %if.then.i.i
  %call9.i.i = call i32 @gettimeofday(ptr noundef nonnull %_now.i.i, ptr noundef null) #12
  %call10.i.i = tail call i32 @qemu_get_thread_id() #12
  %4 = load i64, ptr %_now.i.i, align 8
  %tv_usec.i.i = getelementptr inbounds nuw i8, ptr %_now.i.i, i64 8
  %5 = load i64, ptr %tv_usec.i.i, align 8
  tail call void (ptr, ...) @qemu_log(ptr noundef nonnull @.str.189, i32 noundef %call10.i.i, i64 noundef %4, i64 noundef %5, ptr noundef %s) #12
  br label %trace_ahci_reset.exit

if.else.i.i:                                      ; preds = %if.then.i.i
  tail call void (ptr, ...) @qemu_log(ptr noundef nonnull @.str.190, ptr noundef %s) #12
  br label %trace_ahci_reset.exit

trace_ahci_reset.exit:                            ; preds = %entry, %land.lhs.true5.i.i, %if.then8.i.i, %if.else.i.i
  call void @llvm.lifetime.end.p0(i64 16, ptr nonnull %_now.i.i)
  %irqstatus = getelementptr inbounds nuw i8, ptr %s, i64 24
  store i32 0, ptr %irqstatus, align 8
  %ghc = getelementptr inbounds nuw i8, ptr %s, i64 20
  store i32 -2147483648, ptr %ghc, align 4
  %ports = getelementptr inbounds nuw i8, ptr %s, i64 600
  %6 = load i32, ptr %ports, align 8
  %cmp12 = icmp sgt i32 %6, 0
  br i1 %cmp12, label %for.body.lr.ph, label %for.end

for.body.lr.ph:                                   ; preds = %trace_ahci_reset.exit
  %dev = getelementptr inbounds nuw i8, ptr %s, i64 8
  br label %for.body

for.body:                                         ; preds = %for.body.lr.ph, %for.body
  %indvars.iv = phi i64 [ 0, %for.body.lr.ph ], [ %indvars.iv.next, %for.body ]
  %7 = load ptr, ptr %dev, align 8
  %port_regs = getelementptr %struct.AHCIDevice, ptr %7, i64 %indvars.iv, i32 5
  %irq_stat = getelementptr inbounds nuw i8, ptr %port_regs, i64 16
  store i32 0, ptr %irq_stat, align 4
  %irq_mask = getelementptr inbounds nuw i8, ptr %port_regs, i64 20
  store i32 0, ptr %irq_mask, align 4
  %scr_ctl = getelementptr inbounds nuw i8, ptr %port_regs, i64 44
  store i32 0, ptr %scr_ctl, align 4
  %cmd = getelementptr inbounds nuw i8, ptr %port_regs, i64 24
  store i32 6, ptr %cmd, align 4
  %8 = trunc nuw nsw i64 %indvars.iv to i32
  tail call fastcc void @ahci_reset_port(ptr noundef nonnull %s, i32 noundef %8)
  %indvars.iv.next = add nuw nsw i64 %indvars.iv, 1
  %9 = load i32, ptr %ports, align 8
  %10 = sext i32 %9 to i64
  %cmp = icmp slt i64 %indvars.iv.next, %10
  br i1 %cmp, label %for.body, label %for.end, !llvm.loop !9

for.end:                                          ; preds = %for.body, %trace_ahci_reset.exit
  ret void
}